target datalayout = "e-m:e-p270:32:32-p271:32:32-p272:64:64-i64:64-i128:128-f80:128-n8:16:32:64-S128"
target triple = "x86_64-pc-linux-gnu"

%"class.net::TcpCubicSenderBase" = type <{ %"class.net::SendAlgorithmInterface", %"class.net::HybridSlowStart", %"class.net::PrrSender", ptr, ptr, i8, [3 x i8], i32, i64, i64, i64, i8, i8, i8, i8, i8, [3 x i8] }>
%"class.net::SendAlgorithmInterface" = type { ptr }
%"class.net::HybridSlowStart" = type { i8, i32, i64, i64, i32, %"class.net::QuicTime::Delta" }
%"class.net::QuicTime::Delta" = type { %"class.base::TimeDelta", i64 }
%"class.base::TimeDelta" = type { i64 }
%"class.net::PrrSender" = type { i64, i64, i64, i64 }
%"class.net::RttStats" = type { %"class.net::QuicTime::Delta", %"class.net::QuicTime::Delta", %"class.net::QuicTime::Delta", %"class.net::QuicTime::Delta", %"class.net::QuicTime::Delta", i64, %"class.net::QuicTime::Delta", %"class.net::QuicTime", i32, %"class.net::WindowedFilter" }
%"class.net::QuicTime" = type { i64 }
%"class.net::WindowedFilter" = type { %"class.net::QuicTime::Delta", %"class.net::QuicTime::Delta", [3 x %"struct.net::WindowedFilter<net::QuicTime::Delta, net::MinFilter<net::QuicTime::Delta>, net::QuicTime, net::QuicTime::Delta>::Sample"] }
%"struct.net::WindowedFilter<net::QuicTime::Delta, net::MinFilter<net::QuicTime::Delta>, net::QuicTime, net::QuicTime::Delta>::Sample" = type { %"class.net::QuicTime::Delta", %"class.net::QuicTime" }

; Function Attrs: mustprogress nounwind uwtable
define linkonce_odr void @_ZN4base9TimeDeltaC2Ev(ptr noundef nonnull align 8 dereferenceable(8) %0) unnamed_addr #3 comdat align 2 {
  %2 = alloca ptr, align 8
  store ptr %0, ptr %2, align 8, !tbaa !112
  %3 = load ptr, ptr %2, align 8
  %4 = getelementptr inbounds nuw %"class.base::TimeDelta", ptr %3, i32 0, i32 0
  store i64 0, ptr %4, align 8, !tbaa !114
  ret void
}

; Function Attrs: inlinehint mustprogress uwtable
define linkonce_odr { i64, i64 } @_ZN3netmlENS_8QuicTime5DeltaEi(i64 %0, i64 %1, i32 noundef %2) #6 comdat {
  %4 = alloca %"class.net::QuicTime::Delta", align 8
  %5 = alloca %"class.net::QuicTime::Delta", align 8
  %6 = alloca i32, align 4
  %7 = getelementptr inbounds nuw { i64, i64 }, ptr %5, i32 0, i32 0
  store i64 %0, ptr %7, align 8
  %8 = getelementptr inbounds nuw { i64, i64 }, ptr %5, i32 0, i32 1
  store i64 %1, ptr %8, align 8
  store i32 %2, ptr %6, align 4, !tbaa !66
  %9 = getelementptr inbounds nuw %"class.net::QuicTime::Delta", ptr %5, i32 0, i32 1
  %10 = load i64, ptr %9, align 8, !tbaa !100
  %11 = load i32, ptr %6, align 4, !tbaa !66
  %12 = sext i32 %11 to i64
  %13 = mul nsw i64 %10, %12
  call void @_ZN3net8QuicTime5DeltaC2El(ptr noundef nonnull align 8 dereferenceable(16) %4, i64 noundef %13)
  %14 = load { i64, i64 }, ptr %4, align 8
  ret { i64, i64 } %14
}

; Function Attrs: inlinehint mustprogress uwtable
define linkonce_odr void @_ZN3net8QuicTime5DeltaC2El(ptr noundef nonnull align 8 dereferenceable(16) %0, i64 noundef %1) unnamed_addr #6 comdat align 2 {
  %3 = alloca ptr, align 8
  %4 = alloca i64, align 8
  store ptr %0, ptr %3, align 8, !tbaa !98
  store i64 %1, ptr %4, align 8, !tbaa !56
  %5 = load ptr, ptr %3, align 8
  %6 = getelementptr inbounds nuw %"class.net::QuicTime::Delta", ptr %5, i32 0, i32 0
  call void @_ZN4base9TimeDeltaC2Ev(ptr noundef nonnull align 8 dereferenceable(8) %6)
  %7 = getelementptr inbounds nuw %"class.net::QuicTime::Delta", ptr %5, i32 0, i32 1
  %8 = load i64, ptr %4, align 8, !tbaa !56
  store i64 %8, ptr %7, align 8, !tbaa !100
  ret void
}

; Function Attrs: inlinehint mustprogress uwtable
define linkonce_odr { i64, i64 } @_ZN3netplENS_8QuicTime5DeltaES1_(i64 %0, i64 %1, i64 %2, i64 %3) #6 comdat {
  %5 = alloca %"class.net::QuicTime::Delta", align 8
  %6 = alloca %"class.net::QuicTime::Delta", align 8
  %7 = alloca %"class.net::QuicTime::Delta", align 8
  %8 = getelementptr inbounds nuw { i64, i64 }, ptr %6, i32 0, i32 0
  store i64 %0, ptr %8, align 8
  %9 = getelementptr inbounds nuw { i64, i64 }, ptr %6, i32 0, i32 1
  store i64 %1, ptr %9, align 8
  %10 = getelementptr inbounds nuw { i64, i64 }, ptr %7, i32 0, i32 0
  store i64 %2, ptr %10, align 8
  %11 = getelementptr inbounds nuw { i64, i64 }, ptr %7, i32 0, i32 1
  store i64 %3, ptr %11, align 8
  %12 = getelementptr inbounds nuw %"class.net::QuicTime::Delta", ptr %6, i32 0, i32 1
  %13 = load i64, ptr %12, align 8, !tbaa !100
  %14 = getelementptr inbounds nuw %"class.net::QuicTime::Delta", ptr %7, i32 0, i32 1
  %15 = load i64, ptr %14, align 8, !tbaa !100
  %16 = add nsw i64 %13, %15
  call void @_ZN3net8QuicTime5DeltaC2El(ptr noundef nonnull align 8 dereferenceable(16) %5, i64 noundef %16)
  %17 = load { i64, i64 }, ptr %5, align 8
  ret { i64, i64 } %17
}

; Function Attrs: inlinehint mustprogress uwtable
define linkonce_odr { i64, i64 } @_ZN3netmlEiNS_8QuicTime5DeltaE(i32 noundef %0, i64 %1, i64 %2) #6 comdat {
  %4 = alloca %"class.net::QuicTime::Delta", align 8
  %5 = alloca %"class.net::QuicTime::Delta", align 8
  %6 = alloca i32, align 4
  %7 = alloca %"class.net::QuicTime::Delta", align 8
  %8 = getelementptr inbounds nuw { i64, i64 }, ptr %5, i32 0, i32 0
  store i64 %1, ptr %8, align 8
  %9 = getelementptr inbounds nuw { i64, i64 }, ptr %5, i32 0, i32 1
  store i64 %2, ptr %9, align 8
  store i32 %0, ptr %6, align 4, !tbaa !66
  call void @llvm.memcpy.p0.p0.i64(ptr align 8 %7, ptr align 8 %5, i64 16, i1 false), !tbaa.struct !57
  %10 = load i32, ptr %6, align 4, !tbaa !66
  %11 = getelementptr inbounds nuw { i64, i64 }, ptr %7, i32 0, i32 0
  %12 = load i64, ptr %11, align 8
  %13 = getelementptr inbounds nuw { i64, i64 }, ptr %7, i32 0, i32 1
  %14 = load i64, ptr %13, align 8
  %15 = call { i64, i64 } @_ZN3netmlENS_8QuicTime5DeltaEi(i64 %12, i64 %14, i32 noundef %10)
  %16 = getelementptr inbounds nuw { i64, i64 }, ptr %4, i32 0, i32 0
  %17 = extractvalue { i64, i64 } %15, 0
  store i64 %17, ptr %16, align 8
  %18 = getelementptr inbounds nuw { i64, i64 }, ptr %4, i32 0, i32 1
  %19 = extractvalue { i64, i64 } %15, 1
  store i64 %19, ptr %18, align 8
  %20 = load { i64, i64 }, ptr %4, align 8
  ret { i64, i64 } %20
}

; Function Attrs: mustprogress nounwind uwtable
define linkonce_odr { i64, i64 } @_ZNK3net8RttStats14mean_deviationEv(ptr noundef nonnull align 8 dereferenceable(224) %0) #3 comdat align 2 {
  %2 = alloca %"class.net::QuicTime::Delta", align 8
  %3 = alloca ptr, align 8
  store ptr %0, ptr %3, align 8, !tbaa !10
  %4 = load ptr, ptr %3, align 8
  %5 = getelementptr inbounds nuw %"class.net::RttStats", ptr %4, i32 0, i32 4
  call void @llvm.memcpy.p0.p0.i64(ptr align 8 %2, ptr align 8 %5, i64 16, i1 false), !tbaa.struct !57
  %6 = load { i64, i64 }, ptr %2, align 8
  ret { i64, i64 } %6
}

; Function Attrs: inlinehint mustprogress uwtable
define linkonce_odr { i64, i64 } @_ZN3net8QuicTime5Delta4ZeroEv() #6 comdat align 2 {
  %1 = alloca %"class.net::QuicTime::Delta", align 8
  call void @_ZN3net8QuicTime5DeltaC2El(ptr noundef nonnull align 8 dereferenceable(16) %1, i64 noundef 0)
  %2 = load { i64, i64 }, ptr %1, align 8
  ret { i64, i64 } %2
}

; Function Attrs: inlinehint mustprogress nounwind uwtable
define linkonce_odr noundef zeroext i1 @_ZNK3net8QuicTime5Delta6IsZeroEv(ptr noundef nonnull align 8 dereferenceable(16) %0) #1 comdat align 2 {
  %2 = alloca ptr, align 8
  store ptr %0, ptr %2, align 8, !tbaa !98
  %3 = load ptr, ptr %2, align 8
  %4 = getelementptr inbounds nuw %"class.net::QuicTime::Delta", ptr %3, i32 0, i32 1
  %5 = load i64, ptr %4, align 8, !tbaa !100
  %6 = icmp eq i64 %5, 0
  ret i1 %6
}

; Function Attrs: mustprogress nounwind uwtable
define linkonce_odr { i64, i64 } @_ZNK3net8RttStats12smoothed_rttEv(ptr noundef nonnull align 8 dereferenceable(224) %0) #3 comdat align 2 {
  %2 = alloca %"class.net::QuicTime::Delta", align 8
  %3 = alloca ptr, align 8
  store ptr %0, ptr %3, align 8, !tbaa !10
  %4 = load ptr, ptr %3, align 8
  %5 = getelementptr inbounds nuw %"class.net::RttStats", ptr %4, i32 0, i32 2
  call void @llvm.memcpy.p0.p0.i64(ptr align 8 %2, ptr align 8 %5, i64 16, i1 false), !tbaa.struct !57
  %6 = load { i64, i64 }, ptr %2, align 8
  ret { i64, i64 } %6
}

; Function Attrs: mustprogress uwtable
define { i64, i64 } @_ZNK3net18TcpCubicSenderBase19RetransmissionDelayEv(ptr noundef nonnull align 8 dereferenceable(141) %0) unnamed_addr #0 align 2 {
  %2 = alloca %"class.net::QuicTime::Delta", align 8
  %3 = alloca ptr, align 8
  %4 = alloca %"class.net::QuicTime::Delta", align 8
  %5 = alloca %"class.net::QuicTime::Delta", align 8
  %6 = alloca %"class.net::QuicTime::Delta", align 8
  %7 = alloca %"class.net::QuicTime::Delta", align 8
  store ptr %0, ptr %3, align 8, !tbaa !3
  %8 = load ptr, ptr %3, align 8
  call void @llvm.lifetime.start.p0(i64 16, ptr %4) #13
  %9 = getelementptr inbounds nuw %"class.net::TcpCubicSenderBase", ptr %8, i32 0, i32 3
  %10 = load ptr, ptr %9, align 8, !tbaa !18
  %11 = call { i64, i64 } @_ZNK3net8RttStats12smoothed_rttEv(ptr noundef nonnull align 8 dereferenceable(224) %10)
  %12 = getelementptr inbounds nuw { i64, i64 }, ptr %4, i32 0, i32 0
  %13 = extractvalue { i64, i64 } %11, 0
  store i64 %13, ptr %12, align 8
  %14 = getelementptr inbounds nuw { i64, i64 }, ptr %4, i32 0, i32 1
  %15 = extractvalue { i64, i64 } %11, 1
  store i64 %15, ptr %14, align 8
  %16 = call noundef zeroext i1 @_ZNK3net8QuicTime5Delta6IsZeroEv(ptr noundef nonnull align 8 dereferenceable(16) %4)
  call void @llvm.lifetime.end.p0(i64 16, ptr %4) #13
  br i1 %16, label %17, label %23

17:                                               ; preds = %1
  %18 = call { i64, i64 } @_ZN3net8QuicTime5Delta4ZeroEv()
  %19 = getelementptr inbounds nuw { i64, i64 }, ptr %2, i32 0, i32 0
  %20 = extractvalue { i64, i64 } %18, 0
  store i64 %20, ptr %19, align 8
  %21 = getelementptr inbounds nuw { i64, i64 }, ptr %2, i32 0, i32 1
  %22 = extractvalue { i64, i64 } %18, 1
  store i64 %22, ptr %21, align 8
  br label %60

23:                                               ; preds = %1
  %24 = getelementptr inbounds nuw %"class.net::TcpCubicSenderBase", ptr %8, i32 0, i32 3
  %25 = load ptr, ptr %24, align 8, !tbaa !18
  %26 = call { i64, i64 } @_ZNK3net8RttStats12smoothed_rttEv(ptr noundef nonnull align 8 dereferenceable(224) %25)
  %27 = getelementptr inbounds nuw { i64, i64 }, ptr %5, i32 0, i32 0
  %28 = extractvalue { i64, i64 } %26, 0
  store i64 %28, ptr %27, align 8
  %29 = getelementptr inbounds nuw { i64, i64 }, ptr %5, i32 0, i32 1
  %30 = extractvalue { i64, i64 } %26, 1
  store i64 %30, ptr %29, align 8
  %31 = getelementptr inbounds nuw %"class.net::TcpCubicSenderBase", ptr %8, i32 0, i32 3
  %32 = load ptr, ptr %31, align 8, !tbaa !18
  %33 = call { i64, i64 } @_ZNK3net8RttStats14mean_deviationEv(ptr noundef nonnull align 8 dereferenceable(224) %32)
  %34 = getelementptr inbounds nuw { i64, i64 }, ptr %7, i32 0, i32 0
  %35 = extractvalue { i64, i64 } %33, 0
  store i64 %35, ptr %34, align 8
  %36 = getelementptr inbounds nuw { i64, i64 }, ptr %7, i32 0, i32 1
  %37 = extractvalue { i64, i64 } %33, 1
  store i64 %37, ptr %36, align 8
  %38 = getelementptr inbounds nuw { i64, i64 }, ptr %7, i32 0, i32 0
  %39 = load i64, ptr %38, align 8
  %40 = getelementptr inbounds nuw { i64, i64 }, ptr %7, i32 0, i32 1
  %41 = load i64, ptr %40, align 8
  %42 = call { i64, i64 } @_ZN3netmlEiNS_8QuicTime5DeltaE(i32 noundef 4, i64 %39, i64 %41)
  %43 = getelementptr inbounds nuw { i64, i64 }, ptr %6, i32 0, i32 0
  %44 = extractvalue { i64, i64 } %42, 0
  store i64 %44, ptr %43, align 8
  %45 = getelementptr inbounds nuw { i64, i64 }, ptr %6, i32 0, i32 1
  %46 = extractvalue { i64, i64 } %42, 1
  store i64 %46, ptr %45, align 8
  %47 = getelementptr inbounds nuw { i64, i64 }, ptr %5, i32 0, i32 0
  %48 = load i64, ptr %47, align 8
  %49 = getelementptr inbounds nuw { i64, i64 }, ptr %5, i32 0, i32 1
  %50 = load i64, ptr %49, align 8
  %51 = getelementptr inbounds nuw { i64, i64 }, ptr %6, i32 0, i32 0
  %52 = load i64, ptr %51, align 8
  %53 = getelementptr inbounds nuw { i64, i64 }, ptr %6, i32 0, i32 1
  %54 = load i64, ptr %53, align 8
  %55 = call { i64, i64 } @_ZN3netplENS_8QuicTime5DeltaES1_(i64 %48, i64 %50, i64 %52, i64 %54)
  %56 = getelementptr inbounds nuw { i64, i64 }, ptr %2, i32 0, i32 0
  %57 = extractvalue { i64, i64 } %55, 0
  store i64 %57, ptr %56, align 8
  %58 = getelementptr inbounds nuw { i64, i64 }, ptr %2, i32 0, i32 1
  %59 = extractvalue { i64, i64 } %55, 1
  store i64 %59, ptr %58, align 8
  br label %60

60:                                               ; preds = %23, %17
  %61 = load { i64, i64 }, ptr %2, align 8
  ret { i64, i64 } %61
}