; Function Attrs: mustprogress nofree norecurse nosync nounwind willreturn memory(read, inaccessiblemem: none) uwtable
define { i64, i64 } @_ZNK3net18TcpCubicSenderBase19RetransmissionDelayEv(ptr noundef nonnull readonly align 8 captures(none) dereferenceable(141) %0) unnamed_addr #9 align 2 {
  %2 = getelementptr inbounds nuw i8, ptr %0, i64 88
  %3 = load ptr, ptr %2, align 8, !tbaa !6
  %.sroa.2.0..sroa_idx.i = getelementptr inbounds nuw i8, ptr %3, i64 40
  %.sroa.2.0.copyload.i = load i64, ptr %.sroa.2.0..sroa_idx.i, align 8, !tbaa !37
  %4 = icmp eq i64 %.sroa.2.0.copyload.i, 0
  br i1 %4, label %8, label %5

5:                                                ; preds = %1
  %.sroa.2.0..sroa_idx.i13 = getelementptr inbounds nuw i8, ptr %3, i64 72
  %.sroa.2.0.copyload.i14 = load i64, ptr %.sroa.2.0..sroa_idx.i13, align 8, !tbaa !37
  %6 = shl nsw i64 %.sroa.2.0.copyload.i14, 2
  %7 = add nsw i64 %6, %.sroa.2.0.copyload.i
  %.fca.1.insert.i17 = insertvalue { i64, i64 } { i64 0, i64 poison }, i64 %7, 1
  br label %8

8:                                                ; preds = %1, %5
  %.pn = phi { i64, i64 } [ %.fca.1.insert.i17, %5 ], [ zeroinitializer, %1 ]
  ret { i64, i64 } %.pn
}